target datalayout = "e-m:e-p270:32:32-p271:32:32-p272:64:64-i64:64-i128:128-f80:128-n8:16:32:64-S128"
target triple = "x86_64-pc-linux-gnu"

@Device2PCS16 = internal constant [4 x i32] [i32 1093812784, i32 1093812785, i32 1093812786, i32 1093812785], align 16
@Device2PCSFloat = internal constant [4 x i32] [i32 1144144432, i32 1144144433, i32 1144144434, i32 1144144435], align 16

; Function Attrs: nounwind uwtable
define internal ptr @_cmsReadFloatDevicelinkTag(ptr noundef %0, i32 noundef %1) #0 {
  %3 = alloca ptr, align 8
  %4 = alloca ptr, align 8
  %5 = alloca i32, align 4
  %6 = alloca ptr, align 8
  %7 = alloca ptr, align 8
  %8 = alloca i32, align 4
  %9 = alloca i32, align 4
  store ptr %0, ptr %4, align 8
  store i32 %1, ptr %5, align 4
  %10 = load ptr, ptr %4, align 8
  %11 = call ptr @cmsGetProfileContextID(ptr noundef %10)
  store ptr %11, ptr %6, align 8
  %12 = load ptr, ptr %4, align 8
  %13 = load i32, ptr %5, align 4
  %14 = call ptr @cmsReadTag(ptr noundef %12, i32 noundef %13)
  %15 = call ptr @cmsPipelineDup(ptr noundef %14)
  store ptr %15, ptr %7, align 8
  %16 = load ptr, ptr %4, align 8
  %17 = call i32 @cmsGetPCS(ptr noundef %16)
  store i32 %17, ptr %8, align 4
  %18 = load ptr, ptr %4, align 8
  %19 = call i32 @cmsGetColorSpace(ptr noundef %18)
  store i32 %19, ptr %9, align 4
  %20 = load ptr, ptr %7, align 8
  %21 = icmp eq ptr %20, null
  br i1 %21, label %22, label %23

22:                                               ; preds = %2
  store ptr null, ptr %3, align 8
  br label %73

23:                                               ; preds = %2
  %24 = load i32, ptr %9, align 4
  %25 = icmp eq i32 %24, 1281450528
  br i1 %25, label %26, label %34

26:                                               ; preds = %23
  %27 = load ptr, ptr %7, align 8
  %28 = load ptr, ptr %6, align 8
  %29 = call ptr @_cmsStageNormalizeToLabFloat(ptr noundef %28)
  %30 = call i32 @cmsPipelineInsertStage(ptr noundef %27, i32 noundef 0, ptr noundef %29)
  %31 = icmp ne i32 %30, 0
  br i1 %31, label %33, label %32

32:                                               ; preds = %26
  br label %71

33:                                               ; preds = %26
  br label %46

34:                                               ; preds = %23
  %35 = load i32, ptr %9, align 4
  %36 = icmp eq i32 %35, 1482250784
  br i1 %36, label %37, label %45

37:                                               ; preds = %34
  %38 = load ptr, ptr %7, align 8
  %39 = load ptr, ptr %6, align 8
  %40 = call ptr @_cmsStageNormalizeToXyzFloat(ptr noundef %39)
  %41 = call i32 @cmsPipelineInsertStage(ptr noundef %38, i32 noundef 0, ptr noundef %40)
  %42 = icmp ne i32 %41, 0
  br i1 %42, label %44, label %43

43:                                               ; preds = %37
  br label %71

44:                                               ; preds = %37
  br label %45

45:                                               ; preds = %44, %34
  br label %46

46:                                               ; preds = %45, %33
  %47 = load i32, ptr %8, align 4
  %48 = icmp eq i32 %47, 1281450528
  br i1 %48, label %49, label %57

49:                                               ; preds = %46
  %50 = load ptr, ptr %7, align 8
  %51 = load ptr, ptr %6, align 8
  %52 = call ptr @_cmsStageNormalizeFromLabFloat(ptr noundef %51)
  %53 = call i32 @cmsPipelineInsertStage(ptr noundef %50, i32 noundef 1, ptr noundef %52)
  %54 = icmp ne i32 %53, 0
  br i1 %54, label %56, label %55

55:                                               ; preds = %49
  br label %71

56:                                               ; preds = %49
  br label %69

57:                                               ; preds = %46
  %58 = load i32, ptr %8, align 4
  %59 = icmp eq i32 %58, 1482250784
  br i1 %59, label %60, label %68

60:                                               ; preds = %57
  %61 = load ptr, ptr %7, align 8
  %62 = load ptr, ptr %6, align 8
  %63 = call ptr @_cmsStageNormalizeFromXyzFloat(ptr noundef %62)
  %64 = call i32 @cmsPipelineInsertStage(ptr noundef %61, i32 noundef 1, ptr noundef %63)
  %65 = icmp ne i32 %64, 0
  br i1 %65, label %67, label %66

66:                                               ; preds = %60
  br label %71

67:                                               ; preds = %60
  br label %68

68:                                               ; preds = %67, %57
  br label %69

69:                                               ; preds = %68, %56
  %70 = load ptr, ptr %7, align 8
  store ptr %70, ptr %3, align 8
  br label %73

71:                                               ; preds = %66, %55, %43, %32
  %72 = load ptr, ptr %7, align 8
  call void @cmsPipelineFree(ptr noundef %72)
  store ptr null, ptr %3, align 8
  br label %73

73:                                               ; preds = %71, %69, %22
  %74 = load ptr, ptr %3, align 8
  ret ptr %74
}

; Function Attrs: nounwind uwtable
define hidden ptr @_cmsReadDevicelinkLUT(ptr noundef %0, i32 noundef %1) #0 {
  %3 = alloca ptr, align 8
  %4 = alloca ptr, align 8
  %5 = alloca i32, align 4
  %6 = alloca ptr, align 8
  %7 = alloca i32, align 4
  %8 = alloca i32, align 4
  %9 = alloca i32, align 4
  %10 = alloca ptr, align 8
  %11 = alloca ptr, align 8
  store ptr %0, ptr %4, align 8
  store i32 %1, ptr %5, align 4
  %12 = load ptr, ptr %4, align 8
  %13 = call ptr @cmsGetProfileContextID(ptr noundef %12)
  store ptr %13, ptr %10, align 8
  %14 = load i32, ptr %5, align 4
  %15 = icmp ugt i32 %14, 3
  br i1 %15, label %16, label %17

16:                                               ; preds = %2
  store ptr null, ptr %3, align 8
  br label %152

17:                                               ; preds = %2
  %18 = load i32, ptr %5, align 4
  %19 = zext i32 %18 to i64
  %20 = getelementptr inbounds [4 x i32], ptr @Device2PCS16, i64 0, i64 %19
  %21 = load i32, ptr %20, align 4
  store i32 %21, ptr %8, align 4
  %22 = load i32, ptr %5, align 4
  %23 = zext i32 %22 to i64
  %24 = getelementptr inbounds [4 x i32], ptr @Device2PCSFloat, i64 0, i64 %23
  %25 = load i32, ptr %24, align 4
  store i32 %25, ptr %9, align 4
  %26 = load ptr, ptr %4, align 8
  %27 = call i32 @cmsGetDeviceClass(ptr noundef %26)
  %28 = icmp eq i32 %27, 1852662636
  br i1 %28, label %29, label %64

29:                                               ; preds = %17
  %30 = load ptr, ptr %4, align 8
  %31 = call ptr @cmsReadTag(ptr noundef %30, i32 noundef 1852009522)
  store ptr %31, ptr %11, align 8
  %32 = load ptr, ptr %11, align 8
  %33 = icmp eq ptr %32, null
  br i1 %33, label %34, label %35

34:                                               ; preds = %29
  store ptr null, ptr %3, align 8
  br label %152

35:                                               ; preds = %29
  %36 = load ptr, ptr %10, align 8
  %37 = call ptr @cmsPipelineAlloc(ptr noundef %36, i32 noundef 0, i32 noundef 0)
  store ptr %37, ptr %6, align 8
  %38 = load ptr, ptr %6, align 8
  %39 = icmp eq ptr %38, null
  br i1 %39, label %40, label %41

40:                                               ; preds = %35
  br label %62

41:                                               ; preds = %35
  %42 = load ptr, ptr %6, align 8
  %43 = load ptr, ptr %11, align 8
  %44 = call ptr @_cmsStageAllocNamedColor(ptr noundef %43, i32 noundef 0)
  %45 = call i32 @cmsPipelineInsertStage(ptr noundef %42, i32 noundef 0, ptr noundef %44)
  %46 = icmp ne i32 %45, 0
  br i1 %46, label %48, label %47

47:                                               ; preds = %41
  br label %62

48:                                               ; preds = %41
  %49 = load ptr, ptr %4, align 8
  %50 = call i32 @cmsGetColorSpace(ptr noundef %49)
  %51 = icmp eq i32 %50, 1281450528
  br i1 %51, label %52, label %60

52:                                               ; preds = %48
  %53 = load ptr, ptr %6, align 8
  %54 = load ptr, ptr %10, align 8
  %55 = call ptr @_cmsStageAllocLabV2ToV4(ptr noundef %54)
  %56 = call i32 @cmsPipelineInsertStage(ptr noundef %53, i32 noundef 1, ptr noundef %55)
  %57 = icmp ne i32 %56, 0
  br i1 %57, label %59, label %58

58:                                               ; preds = %52
  br label %62

59:                                               ; preds = %52
  br label %60

60:                                               ; preds = %59, %48
  %61 = load ptr, ptr %6, align 8
  store ptr %61, ptr %3, align 8
  br label %152

62:                                               ; preds = %58, %47, %40
  %63 = load ptr, ptr %6, align 8
  call void @cmsPipelineFree(ptr noundef %63)
  store ptr null, ptr %3, align 8
  br label %152

64:                                               ; preds = %17
  %65 = load ptr, ptr %4, align 8
  %66 = load i32, ptr %9, align 4
  %67 = call i32 @cmsIsTag(ptr noundef %65, i32 noundef %66)
  %68 = icmp ne i32 %67, 0
  br i1 %68, label %69, label %73

69:                                               ; preds = %64
  %70 = load ptr, ptr %4, align 8
  %71 = load i32, ptr %9, align 4
  %72 = call ptr @_cmsReadFloatDevicelinkTag(ptr noundef %70, i32 noundef %71)
  store ptr %72, ptr %3, align 8
  br label %152

73:                                               ; preds = %64
  %74 = load i32, ptr @Device2PCSFloat, align 16
  store i32 %74, ptr %9, align 4
  %75 = load ptr, ptr %4, align 8
  %76 = load i32, ptr %9, align 4
  %77 = call i32 @cmsIsTag(ptr noundef %75, i32 noundef %76)
  %78 = icmp ne i32 %77, 0
  br i1 %78, label %79, label %84

79:                                               ; preds = %73
  %80 = load ptr, ptr %4, align 8
  %81 = load i32, ptr %9, align 4
  %82 = call ptr @cmsReadTag(ptr noundef %80, i32 noundef %81)
  %83 = call ptr @cmsPipelineDup(ptr noundef %82)
  store ptr %83, ptr %3, align 8
  br label %152

84:                                               ; preds = %73
  %85 = load ptr, ptr %4, align 8
  %86 = load i32, ptr %8, align 4
  %87 = call i32 @cmsIsTag(ptr noundef %85, i32 noundef %86)
  %88 = icmp ne i32 %87, 0
  br i1 %88, label %97, label %89

89:                                               ; preds = %84
  %90 = load i32, ptr @Device2PCS16, align 16
  store i32 %90, ptr %8, align 4
  %91 = load ptr, ptr %4, align 8
  %92 = load i32, ptr %8, align 4
  %93 = call i32 @cmsIsTag(ptr noundef %91, i32 noundef %92)
  %94 = icmp ne i32 %93, 0
  br i1 %94, label %96, label %95

95:                                               ; preds = %89
  store ptr null, ptr %3, align 8
  br label %152

96:                                               ; preds = %89
  br label %97

97:                                               ; preds = %96, %84
  %98 = load ptr, ptr %4, align 8
  %99 = load i32, ptr %8, align 4
  %100 = call ptr @cmsReadTag(ptr noundef %98, i32 noundef %99)
  store ptr %100, ptr %6, align 8
  %101 = load ptr, ptr %6, align 8
  %102 = icmp eq ptr %101, null
  br i1 %102, label %103, label %104

103:                                              ; preds = %97
  store ptr null, ptr %3, align 8
  br label %152

104:                                              ; preds = %97
  %105 = load ptr, ptr %6, align 8
  %106 = call ptr @cmsPipelineDup(ptr noundef %105)
  store ptr %106, ptr %6, align 8
  %107 = load ptr, ptr %6, align 8
  %108 = icmp eq ptr %107, null
  br i1 %108, label %109, label %110

109:                                              ; preds = %104
  store ptr null, ptr %3, align 8
  br label %152

110:                                              ; preds = %104
  %111 = load ptr, ptr %4, align 8
  %112 = call i32 @cmsGetPCS(ptr noundef %111)
  %113 = icmp eq i32 %112, 1281450528
  br i1 %113, label %114, label %116

114:                                              ; preds = %110
  %115 = load ptr, ptr %6, align 8
  call void @ChangeInterpolationToTrilinear(ptr noundef %115)
  br label %116

116:                                              ; preds = %114, %110
  %117 = load ptr, ptr %4, align 8
  %118 = load i32, ptr %8, align 4
  %119 = call i32 @_cmsGetTagTrueType(ptr noundef %117, i32 noundef %118)
  store i32 %119, ptr %7, align 4
  %120 = load i32, ptr %7, align 4
  %121 = icmp ne i32 %120, 1835430962
  br i1 %121, label %122, label %124

122:                                              ; preds = %116
  %123 = load ptr, ptr %6, align 8
  store ptr %123, ptr %3, align 8
  br label %152

124:                                              ; preds = %116
  %125 = load ptr, ptr %4, align 8
  %126 = call i32 @cmsGetColorSpace(ptr noundef %125)
  %127 = icmp eq i32 %126, 1281450528
  br i1 %127, label %128, label %136

128:                                              ; preds = %124
  %129 = load ptr, ptr %6, align 8
  %130 = load ptr, ptr %10, align 8
  %131 = call ptr @_cmsStageAllocLabV4ToV2(ptr noundef %130)
  %132 = call i32 @cmsPipelineInsertStage(ptr noundef %129, i32 noundef 0, ptr noundef %131)
  %133 = icmp ne i32 %132, 0
  br i1 %133, label %135, label %134

134:                                              ; preds = %128
  br label %150

135:                                              ; preds = %128
  br label %136

136:                                              ; preds = %135, %124
  %137 = load ptr, ptr %4, align 8
  %138 = call i32 @cmsGetPCS(ptr noundef %137)
  %139 = icmp eq i32 %138, 1281450528
  br i1 %139, label %140, label %148

140:                                              ; preds = %136
  %141 = load ptr, ptr %6, align 8
  %142 = load ptr, ptr %10, align 8
  %143 = call ptr @_cmsStageAllocLabV2ToV4(ptr noundef %142)
  %144 = call i32 @cmsPipelineInsertStage(ptr noundef %141, i32 noundef 1, ptr noundef %143)
  %145 = icmp ne i32 %144, 0
  br i1 %145, label %147, label %146

146:                                              ; preds = %140
  br label %150

147:                                              ; preds = %140
  br label %148

148:                                              ; preds = %147, %136
  %149 = load ptr, ptr %6, align 8
  store ptr %149, ptr %3, align 8
  br label %152

150:                                              ; preds = %146, %134
  %151 = load ptr, ptr %6, align 8
  call void @cmsPipelineFree(ptr noundef %151)
  store ptr null, ptr %3, align 8
  br label %152

152:                                              ; preds = %150, %148, %122, %109, %103, %95, %79, %69, %62, %60, %34, %16
  %153 = load ptr, ptr %3, align 8
  ret ptr %153
}