; Function Attrs: nounwind uwtable
define hidden ptr @_cmsReadDevicelinkLUT(ptr noundef %0, i32 noundef %1) local_unnamed_addr #0 {
  %3 = tail call ptr @cmsGetProfileContextID(ptr noundef %0) #4
  %4 = icmp ugt i32 %1, 3
  br i1 %4, label %_cmsReadFloatDevicelinkTag.exit, label %5

5:                                                ; preds = %2
  %6 = zext nneg i32 %1 to i64
  %7 = getelementptr inbounds [4 x i32], ptr @Device2PCS16, i64 0, i64 %6
  %8 = load i32, ptr %7, align 4
  %9 = getelementptr inbounds [4 x i32], ptr @Device2PCSFloat, i64 0, i64 %6
  %10 = load i32, ptr %9, align 4
  %11 = tail call i32 @cmsGetDeviceClass(ptr noundef %0) #4
  %12 = icmp eq i32 %11, 1852662636
  br i1 %12, label %13, label %29

13:                                               ; preds = %5
  %14 = tail call ptr @cmsReadTag(ptr noundef %0, i32 noundef 1852009522) #4
  %15 = icmp eq ptr %14, null
  br i1 %15, label %_cmsReadFloatDevicelinkTag.exit, label %16

16:                                               ; preds = %13
  %17 = tail call ptr @cmsPipelineAlloc(ptr noundef %3, i32 noundef 0, i32 noundef 0) #4
  %18 = icmp eq ptr %17, null
  br i1 %18, label %28, label %19

19:                                               ; preds = %16
  %20 = tail call ptr @_cmsStageAllocNamedColor(ptr noundef nonnull %14, i32 noundef 0) #4
  %21 = tail call i32 @cmsPipelineInsertStage(ptr noundef nonnull %17, i32 noundef 0, ptr noundef %20) #4
  %.not59 = icmp eq i32 %21, 0
  br i1 %.not59, label %28, label %22

22:                                               ; preds = %19
  %23 = tail call i32 @cmsGetColorSpace(ptr noundef %0) #4
  %24 = icmp eq i32 %23, 1281450528
  br i1 %24, label %25, label %_cmsReadFloatDevicelinkTag.exit

25:                                               ; preds = %22
  %26 = tail call ptr @_cmsStageAllocLabV2ToV4(ptr noundef %3) #4
  %27 = tail call i32 @cmsPipelineInsertStage(ptr noundef nonnull %17, i32 noundef 1, ptr noundef %26) #4
  %.not60 = icmp eq i32 %27, 0
  br i1 %.not60, label %28, label %_cmsReadFloatDevicelinkTag.exit

28:                                               ; preds = %25, %19, %16
  tail call void @cmsPipelineFree(ptr noundef %17) #4
  br label %_cmsReadFloatDevicelinkTag.exit

29:                                               ; preds = %5
  %30 = tail call i32 @cmsIsTag(ptr noundef %0, i32 noundef %10) #4
  %.not = icmp eq i32 %30, 0
  br i1 %.not, label %53, label %31

31:                                               ; preds = %29
  %32 = tail call ptr @cmsGetProfileContextID(ptr noundef %0) #4
  %33 = tail call ptr @cmsReadTag(ptr noundef %0, i32 noundef %10) #4
  %34 = tail call ptr @cmsPipelineDup(ptr noundef %33) #4
  %35 = tail call i32 @cmsGetPCS(ptr noundef %0) #4
  %36 = tail call i32 @cmsGetColorSpace(ptr noundef %0) #4
  %37 = icmp eq ptr %34, null
  br i1 %37, label %_cmsReadFloatDevicelinkTag.exit, label %38

38:                                               ; preds = %31
  switch i32 %36, label %45 [
    i32 1281450528, label %39
    i32 1482250784, label %42
  ]

39:                                               ; preds = %38
  %40 = tail call ptr @_cmsStageNormalizeToLabFloat(ptr noundef %32) #4
  %41 = tail call i32 @cmsPipelineInsertStage(ptr noundef nonnull %34, i32 noundef 0, ptr noundef %40) #4
  %.not23.i = icmp eq i32 %41, 0
  br i1 %.not23.i, label %52, label %45

42:                                               ; preds = %38
  %43 = tail call ptr @_cmsStageNormalizeToXyzFloat(ptr noundef %32) #4
  %44 = tail call i32 @cmsPipelineInsertStage(ptr noundef nonnull %34, i32 noundef 0, ptr noundef %43) #4
  %.not.i = icmp eq i32 %44, 0
  br i1 %.not.i, label %52, label %45

45:                                               ; preds = %42, %39, %38
  switch i32 %35, label %_cmsReadFloatDevicelinkTag.exit [
    i32 1281450528, label %46
    i32 1482250784, label %49
  ]

46:                                               ; preds = %45
  %47 = tail call ptr @_cmsStageNormalizeFromLabFloat(ptr noundef %32) #4
  %48 = tail call i32 @cmsPipelineInsertStage(ptr noundef nonnull %34, i32 noundef 1, ptr noundef %47) #4
  %.not25.i = icmp eq i32 %48, 0
  br i1 %.not25.i, label %52, label %_cmsReadFloatDevicelinkTag.exit

49:                                               ; preds = %45
  %50 = tail call ptr @_cmsStageNormalizeFromXyzFloat(ptr noundef %32) #4
  %51 = tail call i32 @cmsPipelineInsertStage(ptr noundef nonnull %34, i32 noundef 1, ptr noundef %50) #4
  %.not24.i = icmp eq i32 %51, 0
  br i1 %.not24.i, label %52, label %_cmsReadFloatDevicelinkTag.exit

52:                                               ; preds = %49, %46, %42, %39
  tail call void @cmsPipelineFree(ptr noundef nonnull %34) #4
  br label %_cmsReadFloatDevicelinkTag.exit

53:                                               ; preds = %29
  %54 = tail call i32 @cmsIsTag(ptr noundef %0, i32 noundef 1144144432) #4
  %.not53 = icmp eq i32 %54, 0
  br i1 %.not53, label %58, label %55

55:                                               ; preds = %53
  %56 = tail call ptr @cmsReadTag(ptr noundef %0, i32 noundef 1144144432) #4
  %57 = tail call ptr @cmsPipelineDup(ptr noundef %56) #4
  br label %_cmsReadFloatDevicelinkTag.exit

58:                                               ; preds = %53
  %59 = tail call i32 @cmsIsTag(ptr noundef %0, i32 noundef %8) #4
  %.not54 = icmp eq i32 %59, 0
  br i1 %.not54, label %60, label %62

60:                                               ; preds = %58
  %61 = tail call i32 @cmsIsTag(ptr noundef %0, i32 noundef 1093812784) #4
  %.not55 = icmp eq i32 %61, 0
  br i1 %.not55, label %_cmsReadFloatDevicelinkTag.exit, label %62

62:                                               ; preds = %60, %58
  %.047 = phi i32 [ %8, %58 ], [ 1093812784, %60 ]
  %63 = tail call ptr @cmsReadTag(ptr noundef %0, i32 noundef %.047) #4
  %64 = icmp eq ptr %63, null
  br i1 %64, label %_cmsReadFloatDevicelinkTag.exit, label %65

65:                                               ; preds = %62
  %66 = tail call ptr @cmsPipelineDup(ptr noundef nonnull %63) #4
  %67 = icmp eq ptr %66, null
  br i1 %67, label %_cmsReadFloatDevicelinkTag.exit, label %68

68:                                               ; preds = %65
  %69 = tail call i32 @cmsGetPCS(ptr noundef %0) #4
  %70 = icmp eq i32 %69, 1281450528
  br i1 %70, label %71, label %72

71:                                               ; preds = %68
  tail call fastcc void @ChangeInterpolationToTrilinear(ptr noundef nonnull %66)
  br label %72

72:                                               ; preds = %71, %68
  %73 = tail call i32 @_cmsGetTagTrueType(ptr noundef %0, i32 noundef %.047) #4
  %.not56 = icmp eq i32 %73, 1835430962
  br i1 %.not56, label %74, label %_cmsReadFloatDevicelinkTag.exit

74:                                               ; preds = %72
  %75 = tail call i32 @cmsGetColorSpace(ptr noundef %0) #4
  %76 = icmp eq i32 %75, 1281450528
  br i1 %76, label %77, label %80

77:                                               ; preds = %74
  %78 = tail call ptr @_cmsStageAllocLabV4ToV2(ptr noundef %3) #4
  %79 = tail call i32 @cmsPipelineInsertStage(ptr noundef nonnull %66, i32 noundef 0, ptr noundef %78) #4
  %.not57 = icmp eq i32 %79, 0
  br i1 %.not57, label %86, label %80

80:                                               ; preds = %77, %74
  %81 = tail call i32 @cmsGetPCS(ptr noundef %0) #4
  %82 = icmp eq i32 %81, 1281450528
  br i1 %82, label %83, label %_cmsReadFloatDevicelinkTag.exit

83:                                               ; preds = %80
  %84 = tail call ptr @_cmsStageAllocLabV2ToV4(ptr noundef %3) #4
  %85 = tail call i32 @cmsPipelineInsertStage(ptr noundef nonnull %66, i32 noundef 1, ptr noundef %84) #4
  %.not58 = icmp eq i32 %85, 0
  br i1 %.not58, label %86, label %_cmsReadFloatDevicelinkTag.exit

86:                                               ; preds = %83, %77
  tail call void @cmsPipelineFree(ptr noundef nonnull %66) #4
  br label %_cmsReadFloatDevicelinkTag.exit

_cmsReadFloatDevicelinkTag.exit:                  ; preds = %52, %49, %46, %45, %31, %80, %83, %72, %65, %62, %60, %22, %25, %13, %2, %86, %55, %28
  %.0 = phi ptr [ null, %28 ], [ %57, %55 ], [ null, %86 ], [ null, %2 ], [ null, %13 ], [ %17, %25 ], [ %17, %22 ], [ null, %60 ], [ null, %62 ], [ null, %65 ], [ %66, %72 ], [ %66, %83 ], [ %66, %80 ], [ null, %52 ], [ null, %31 ], [ %34, %45 ], [ %34, %49 ], [ %34, %46 ]
  ret ptr %.0
}